; Function Attrs: mustprogress uwtable
define noundef i32 @_ZNK6casadi5NormF4evalEPPKdPPdPxS4_(ptr noundef nonnull readonly align 8 captures(none) dereferenceable(64) %0, ptr noundef readonly captures(none) %1, ptr noundef readonly captures(none) %2, ptr readnone captures(none) %3, ptr readnone captures(none) %4) unnamed_addr #3 align 2 {
  %6 = getelementptr inbounds nuw i8, ptr %0, i64 32
  %7 = getelementptr inbounds nuw i8, ptr %0, i64 40
  %8 = load ptr, ptr %7, align 8, !tbaa !23
  %9 = load ptr, ptr %6, align 8, !tbaa !26
  %.not.i.i.i.not.i = icmp eq ptr %8, %9
  br i1 %.not.i.i.i.not.i, label %10, label %_ZNK6casadi6MXNode3depEx.exit.i

10:                                               ; preds = %5
  tail call void (ptr, ...) @_ZSt24__throw_out_of_range_fmtPKcz(ptr noundef nonnull @.str.7, i64 noundef 0, i64 noundef 0) #24
  unreachable

_ZNK6casadi6MXNode3depEx.exit.i:                  ; preds = %5
  %11 = tail call noundef nonnull align 8 dereferenceable(8) ptr @_ZNK6casadi2MX8sparsityEv(ptr noundef nonnull align 8 dereferenceable(8) %9)
  %12 = tail call noundef i64 @_ZNK6casadi8Sparsity3nnzEv(ptr noundef nonnull align 8 dereferenceable(8) %11)
  %13 = icmp sgt i64 %12, 0
  br i1 %13, label %.lr.ph.i.i.preheader.i, label %_ZNK6casadi5NormF8eval_genIdEEiPPKT_PPS2_PxS6_.exit

.lr.ph.i.i.preheader.i:                           ; preds = %_ZNK6casadi6MXNode3depEx.exit.i
  %14 = load ptr, ptr %1, align 8, !tbaa !27
  br label %.lr.ph.i.i.i

.lr.ph.i.i.i:                                     ; preds = %.lr.ph.i.i.i, %.lr.ph.i.i.preheader.i
  %.012.i.i.i = phi double [ %17, %.lr.ph.i.i.i ], [ 0.000000e+00, %.lr.ph.i.i.preheader.i ]
  %.0611.i.i.i = phi i64 [ %18, %.lr.ph.i.i.i ], [ 0, %.lr.ph.i.i.preheader.i ]
  %.0710.i.i.i = phi ptr [ %15, %.lr.ph.i.i.i ], [ %14, %.lr.ph.i.i.preheader.i ]
  %15 = getelementptr i8, ptr %.0710.i.i.i, i64 8
  %16 = load double, ptr %.0710.i.i.i, align 8, !tbaa !29
  %17 = tail call double @llvm.fmuladd.f64(double %16, double %16, double %.012.i.i.i)
  %18 = add nuw nsw i64 %.0611.i.i.i, 1
  %exitcond.not.i.i.i = icmp eq i64 %18, %12
  br i1 %exitcond.not.i.i.i, label %_ZNK6casadi5NormF8eval_genIdEEiPPKT_PPS2_PxS6_.exit, label %.lr.ph.i.i.i, !llvm.loop !31

_ZNK6casadi5NormF8eval_genIdEEiPPKT_PPS2_PxS6_.exit: ; preds = %.lr.ph.i.i.i, %_ZNK6casadi6MXNode3depEx.exit.i
  %.0.lcssa.i.i.i = phi double [ 0.000000e+00, %_ZNK6casadi6MXNode3depEx.exit.i ], [ %17, %.lr.ph.i.i.i ]
  %19 = tail call noundef double @sqrt(double noundef %.0.lcssa.i.i.i) #22, !tbaa !33
  %20 = load ptr, ptr %2, align 8, !tbaa !27
  store double %19, ptr %20, align 8, !tbaa !29
  ret i32 0
}